; Function Attrs: nounwind uwtable
define noalias noundef nonnull ptr @l_Lean_profileitIOUnsafe___rarg___lambda__1(ptr noundef %0, ptr readnone captures(none) %1) local_unnamed_addr #0 {
  %3 = tail call ptr @lean_apply_1(ptr noundef %0, ptr noundef nonnull inttoptr (i64 1 to ptr)) #3
  %4 = ptrtoint ptr %3 to i64
  %5 = and i64 %4, 1
  %.not.i20 = icmp eq i64 %5, 0
  br i1 %.not.i20, label %9, label %6

6:                                                ; preds = %2
  %7 = lshr i64 %4, 1
  %8 = trunc i64 %7 to i32
  br label %lean_obj_tag.exit

9:                                                ; preds = %2
  %10 = getelementptr i8, ptr %3, i64 4
  %.val.i = load i32, ptr %10, align 4
  %11 = lshr i32 %.val.i, 24
  br label %lean_obj_tag.exit

lean_obj_tag.exit:                                ; preds = %6, %9
  %.0.i = phi i32 [ %8, %6 ], [ %11, %9 ]
  %12 = icmp eq i32 %.0.i, 0
  %13 = getelementptr inbounds nuw i8, ptr %3, i64 8
  %14 = load ptr, ptr %13, align 8, !tbaa !4
  %15 = ptrtoint ptr %14 to i64
  %16 = and i64 %15, 1
  %.not28 = icmp eq i64 %16, 0
  br i1 %12, label %17, label %34

17:                                               ; preds = %lean_obj_tag.exit
  br i1 %.not28, label %18, label %lean_inc.exit16

18:                                               ; preds = %17
  %.val.i21 = load i32, ptr %14, align 4, !tbaa !10
  %19 = icmp sgt i32 %.val.i21, 0
  br i1 %19, label %20, label %22, !prof !14

20:                                               ; preds = %18
  %21 = add nuw i32 %.val.i21, 1
  store i32 %21, ptr %14, align 4, !tbaa !10
  br label %lean_inc.exit16

22:                                               ; preds = %18
  %.not.i22 = icmp eq i32 %.val.i21, 0
  br i1 %.not.i22, label %lean_inc.exit16, label %23

23:                                               ; preds = %22
  tail call void @lean_inc_ref_cold(ptr noundef nonnull %14) #3
  br label %lean_inc.exit16

lean_inc.exit16:                                  ; preds = %23, %22, %20, %17
  br i1 %.not.i20, label %24, label %lean_dec.exit17

24:                                               ; preds = %lean_inc.exit16
  %25 = load i32, ptr %3, align 4, !tbaa !10
  %26 = icmp sgt i32 %25, 1
  br i1 %26, label %27, label %29, !prof !14

27:                                               ; preds = %24
  %28 = add nsw i32 %25, -1
  store i32 %28, ptr %3, align 4, !tbaa !10
  br label %lean_dec.exit17

29:                                               ; preds = %24
  %.not.i = icmp eq i32 %25, 0
  br i1 %.not.i, label %lean_dec.exit17, label %30

30:                                               ; preds = %29
  tail call void @lean_dec_ref_cold(ptr noundef nonnull %3) #3
  br label %lean_dec.exit17

lean_dec.exit17:                                  ; preds = %30, %29, %27, %lean_inc.exit16
  tail call void @lean_inc_heartbeat() #3
  %31 = tail call noalias ptr @mi_malloc_small(i64 noundef 16) #3
  %32 = icmp eq ptr %31, null
  br i1 %32, label %33, label %lean_alloc_ctor.exit

33:                                               ; preds = %lean_dec.exit17
  tail call void @lean_internal_panic_out_of_memory() #4
  unreachable

34:                                               ; preds = %lean_obj_tag.exit
  br i1 %.not28, label %35, label %lean_inc.exit

35:                                               ; preds = %34
  %.val.i23 = load i32, ptr %14, align 4, !tbaa !10
  %36 = icmp sgt i32 %.val.i23, 0
  br i1 %36, label %37, label %39, !prof !14

37:                                               ; preds = %35
  %38 = add nuw i32 %.val.i23, 1
  store i32 %38, ptr %14, align 4, !tbaa !10
  br label %lean_inc.exit

39:                                               ; preds = %35
  %.not.i24 = icmp eq i32 %.val.i23, 0
  br i1 %.not.i24, label %lean_inc.exit, label %40

40:                                               ; preds = %39
  tail call void @lean_inc_ref_cold(ptr noundef nonnull %14) #3
  br label %lean_inc.exit

lean_inc.exit:                                    ; preds = %40, %39, %37, %34
  br i1 %.not.i20, label %41, label %lean_dec.exit

41:                                               ; preds = %lean_inc.exit
  %42 = load i32, ptr %3, align 4, !tbaa !10
  %43 = icmp sgt i32 %42, 1
  br i1 %43, label %44, label %46, !prof !14

44:                                               ; preds = %41
  %45 = add nsw i32 %42, -1
  store i32 %45, ptr %3, align 4, !tbaa !10
  br label %lean_dec.exit

46:                                               ; preds = %41
  %.not.i18 = icmp eq i32 %42, 0
  br i1 %.not.i18, label %lean_dec.exit, label %47

47:                                               ; preds = %46
  tail call void @lean_dec_ref_cold(ptr noundef nonnull %3) #3
  br label %lean_dec.exit

lean_dec.exit:                                    ; preds = %47, %46, %44, %lean_inc.exit
  tail call void @lean_inc_heartbeat() #3
  %48 = tail call noalias ptr @mi_malloc_small(i64 noundef 16) #3
  %49 = icmp eq ptr %48, null
  br i1 %49, label %50, label %lean_alloc_ctor.exit

50:                                               ; preds = %lean_dec.exit
  tail call void @lean_internal_panic_out_of_memory() #4
  unreachable

lean_alloc_ctor.exit:                             ; preds = %lean_dec.exit, %lean_dec.exit17
  %.sink33 = phi ptr [ %31, %lean_dec.exit17 ], [ %48, %lean_dec.exit ]
  %.sink = phi i32 [ 16842768, %lean_dec.exit17 ], [ 65552, %lean_dec.exit ]
  %51 = getelementptr inbounds nuw i8, ptr %.sink33, i64 4
  store i32 1, ptr %.sink33, align 4, !tbaa !10
  store i32 %.sink, ptr %51, align 4
  %52 = getelementptr inbounds nuw i8, ptr %.sink33, i64 8
  store ptr %14, ptr %52, align 8, !tbaa !4
  ret ptr %.sink33
}